(dp0
S'#superbowl'
p1
(lp2
(lp3
F619.0927559597669
aF708.3330926087743
aF601.2628847873727
aa(lp4
F3211734.0183889656
aF97051.21956256071
aF62291.24750562848
aa(lp5
F897.6026597678998
aF436.3887982133343
aF345.958304089594
aasS'#gohawks'
p6
(lp7
(lp8
F1799.157413664255
aF460.26660639333005
aF439.7710467522843
aa(lp9
F56243.01385213109
aF3434.841477502307
aF2564.205422485475
aa(lp10
F11645.93581350966
aF44.91700588898525
aF37.976714518638296
aasS'#sb49'
p11
(lp12
(lp13
F80.00425575213788
aF109.44365859347195
aF87.28732759151542
aa(lp14
F906625.1719303888
aF35314.632388853155
aF24039.573214589185
aa(lp15
F304.5990076060568
aF324.8604096411933
aF166.0133866828014
aasS'#nfl'
p16
(lp17
(lp18
F215.3847328445482
aF249.6460569616193
aF230.3008494629621
aa(lp19
F49412.59832187189
aF4146.565595663316
aF3043.2066758320802
aa(lp20
F247.59590266110757
aF195.5082185381349
aF182.49507161364625
aasS'#patriots'
p21
(lp22
(lp23
F892.275788744394
aF512.2530887853854
aF515.9094412559979
aa(lp24
F331059.905450379
aF14867.864908549114
aF14958.434509048733
aa(lp25
F445.81607184709355
aF167.99246822427227
aF157.10411794466108
aasS'#gopatriots'
p26
(lp27
(lp28
F36.738081925075036
aF38.50211027126177
aF27.077763907821083
aa(lp29
F18121.076804419386
aF1363.9612957122606
aF1149.944360768011
aa(lp30
F420.90542421625366
aF5.5300862529452885
aF4.513461699397576
aas.